; Function Attrs: nounwind uwtable
define ptr @l_Lean_Compiler_LCNF_mkDeclExt(ptr noundef %0, ptr noundef %1) local_unnamed_addr #1 {
  %3 = load ptr, ptr @l_Lean_Compiler_LCNF_mkDeclExt___closed__2, align 8, !tbaa !9
  %4 = load ptr, ptr @l_Lean_Compiler_LCNF_mkDeclExt___closed__5, align 8, !tbaa !9
  %5 = load ptr, ptr @l_Lean_Compiler_LCNF_mkDeclExt___closed__6, align 8, !tbaa !9
  %6 = load ptr, ptr @l_Lean_Compiler_LCNF_mkDeclExt___closed__4, align 8, !tbaa !9
  tail call void @lean_inc_heartbeat() #6
  %7 = tail call noalias ptr @mi_malloc_small(i64 noundef 56) #6
  %8 = icmp eq ptr %7, null
  br i1 %8, label %9, label %lean_alloc_ctor.exit

9:                                                ; preds = %2
  tail call void @lean_internal_panic_out_of_memory() #7
  unreachable

lean_alloc_ctor.exit:                             ; preds = %2
  %10 = getelementptr inbounds nuw i8, ptr %7, i64 4
  %11 = getelementptr inbounds nuw i8, ptr %7, i64 48
  store i64 256, ptr %11, align 8, !tbaa !14
  store i32 1, ptr %7, align 4, !tbaa !4
  store i32 327736, ptr %10, align 4
  %12 = getelementptr inbounds nuw i8, ptr %7, i64 8
  store ptr %0, ptr %12, align 8, !tbaa !9
  %13 = getelementptr inbounds nuw i8, ptr %7, i64 16
  store ptr %3, ptr %13, align 8, !tbaa !9
  %14 = getelementptr inbounds nuw i8, ptr %7, i64 24
  store ptr %4, ptr %14, align 8, !tbaa !9
  %15 = getelementptr inbounds nuw i8, ptr %7, i64 32
  store ptr %5, ptr %15, align 8, !tbaa !9
  %16 = getelementptr inbounds nuw i8, ptr %7, i64 40
  store ptr %6, ptr %16, align 8, !tbaa !9
  %17 = tail call ptr @l_Lean_registerSimplePersistentEnvExtension___rarg(ptr noundef nonnull %7, ptr noundef %1) #6
  ret ptr %17
}